; Function Attrs: nounwind uwtable
define nonnull ptr @l_Lean_LocalContext_any___boxed(ptr noundef %0, ptr noundef %1) local_unnamed_addr #2 {
  %3 = getelementptr inbounds nuw i8, ptr %0, i64 16
  %4 = load ptr, ptr %3, align 8, !tbaa !9
  %5 = tail call zeroext range(i8 0, 2) i8 @l_Lean_PersistentArray_anyM___at_Lean_LocalContext_any___spec__1(ptr noundef %1, ptr noundef %4)
  %6 = ptrtoint ptr %0 to i64
  %7 = and i64 %6, 1
  %.not = icmp eq i64 %7, 0
  br i1 %.not, label %8, label %lean_dec.exit

8:                                                ; preds = %2
  %9 = load i32, ptr %0, align 4, !tbaa !4
  %10 = icmp sgt i32 %9, 1
  br i1 %10, label %11, label %13, !prof !11

11:                                               ; preds = %8
  %12 = add nsw i32 %9, -1
  store i32 %12, ptr %0, align 4, !tbaa !4
  br label %lean_dec.exit

13:                                               ; preds = %8
  %.not.i = icmp eq i32 %9, 0
  br i1 %.not.i, label %lean_dec.exit, label %14

14:                                               ; preds = %13
  tail call void @lean_dec_ref_cold(ptr noundef nonnull %0) #8
  br label %lean_dec.exit

lean_dec.exit:                                    ; preds = %14, %13, %11, %2
  %15 = shl nuw nsw i8 %5, 1
  %16 = or disjoint i8 %15, 1
  %17 = zext nneg i8 %16 to i64
  %18 = inttoptr i64 %17 to ptr
  ret ptr %18
}